target datalayout = "e-m:e-p270:32:32-p271:32:32-p272:64:64-i64:64-i128:128-f80:128-n8:16:32:64-S128"
target triple = "x86_64-pc-linux-gnu"

%"class.std::vector" = type { %"struct.std::_Vector_base" }
%"struct.std::_Vector_base" = type { %"struct.std::_Vector_base<float, std::allocator<float>>::_Vector_impl" }
%"struct.std::_Vector_base<float, std::allocator<float>>::_Vector_impl" = type { %"struct.std::_Vector_base<float, std::allocator<float>>::_Vector_impl_data" }
%"struct.std::_Vector_base<float, std::allocator<float>>::_Vector_impl_data" = type { ptr, ptr, ptr }
%"struct.faiss::ScalarQuantizer::SQuantizer" = type { ptr }
%"struct.faiss::(anonymous namespace)::QuantizerTemplate.6" = type { %"struct.faiss::ScalarQuantizer::SQuantizer", i64, float, float }
%"struct.faiss::ScalarQuantizer::SQDistanceComputer" = type { %"struct.faiss::FlatCodesDistanceComputer", ptr }
%"struct.faiss::FlatCodesDistanceComputer" = type { %"struct.faiss::DistanceComputer", ptr, i64 }
%"struct.faiss::DistanceComputer" = type { ptr }
%"struct.faiss::(anonymous namespace)::DCTemplate.9" = type { %"struct.faiss::ScalarQuantizer::SQDistanceComputer", %"struct.faiss::(anonymous namespace)::QuantizerTemplate.6" }
%"struct.faiss::InvertedListScanner" = type { ptr, i64, i8, i8, ptr, i64 }
%"struct.faiss::(anonymous namespace)::IVFSQScannerL2.30" = type { %"struct.faiss::InvertedListScanner", %"struct.faiss::(anonymous namespace)::DCTemplate.9", i8, ptr, ptr, %"class.std::vector" }

; Function Attrs: mustprogress nounwind uwtable
define linkonce_odr noundef ptr @_ZNKSt6vectorIfSaIfEE11_M_data_ptrIfEEPT_S4_(ptr noundef nonnull align 8 dereferenceable(24) %0, ptr noundef %1) #1 comdat align 2 {
  %3 = alloca ptr, align 8
  %4 = alloca ptr, align 8
  store ptr %0, ptr %3, align 8
  store ptr %1, ptr %4, align 8
  %5 = load ptr, ptr %4, align 8
  ret ptr %5
}

; Function Attrs: mustprogress nounwind uwtable
define internal void @_ZN5faiss12_GLOBAL__N_110DCTemplateINS0_17QuantizerTemplateINS0_9Codec4bitELb1ELi1EEENS0_12SimilarityL2ILi1EEELi1EE9set_queryEPKf(ptr noundef nonnull align 8 dereferenceable(56) %0, ptr noundef %1) unnamed_addr #1 align 2 {
  %3 = alloca ptr, align 8
  %4 = alloca ptr, align 8
  store ptr %0, ptr %3, align 8
  store ptr %1, ptr %4, align 8
  %5 = load ptr, ptr %3, align 8
  %6 = load ptr, ptr %4, align 8
  %7 = getelementptr inbounds %"struct.faiss::ScalarQuantizer::SQDistanceComputer", ptr %5, i32 0, i32 1
  store ptr %6, ptr %7, align 8
  ret void
}

; Function Attrs: mustprogress nounwind uwtable
define linkonce_odr noundef ptr @_ZNSt6vectorIfSaIfEE4dataEv(ptr noundef nonnull align 8 dereferenceable(24) %0) #1 comdat align 2 {
  %2 = alloca ptr, align 8
  store ptr %0, ptr %2, align 8
  %3 = load ptr, ptr %2, align 8
  %4 = getelementptr inbounds %"struct.std::_Vector_base", ptr %3, i32 0, i32 0
  %5 = getelementptr inbounds %"struct.std::_Vector_base<float, std::allocator<float>>::_Vector_impl_data", ptr %4, i32 0, i32 0
  %6 = load ptr, ptr %5, align 8
  %7 = call noundef ptr @_ZNKSt6vectorIfSaIfEE11_M_data_ptrIfEEPT_S4_(ptr noundef nonnull align 8 dereferenceable(24) %3, ptr noundef %6) #12
  ret ptr %7
}

; Function Attrs: mustprogress uwtable
define internal void @_ZN5faiss12_GLOBAL__N_114IVFSQScannerL2INS0_10DCTemplateINS0_17QuantizerTemplateINS0_9Codec4bitELb1ELi1EEENS0_12SimilarityL2ILi1EEELi1EEELi2EE8set_listElf(ptr noundef nonnull align 8 dereferenceable(144) %0, i64 noundef %1, float noundef %2) unnamed_addr #0 align 2 {
  %4 = alloca ptr, align 8
  %5 = alloca i64, align 8
  %6 = alloca float, align 4
  store ptr %0, ptr %4, align 8
  store i64 %1, ptr %5, align 8
  store float %2, ptr %6, align 4
  %7 = load ptr, ptr %4, align 8
  %8 = load i64, ptr %5, align 8
  %9 = getelementptr inbounds %"struct.faiss::InvertedListScanner", ptr %7, i32 0, i32 1
  store i64 %8, ptr %9, align 8
  %10 = getelementptr inbounds %"struct.faiss::(anonymous namespace)::IVFSQScannerL2.30", ptr %7, i32 0, i32 2
  %11 = load i8, ptr %10, align 8
  %12 = trunc i8 %11 to i1
  br i1 %12, label %13, label %27

13:                                               ; preds = %3
  %14 = getelementptr inbounds %"struct.faiss::(anonymous namespace)::IVFSQScannerL2.30", ptr %7, i32 0, i32 3
  %15 = load ptr, ptr %14, align 8
  %16 = getelementptr inbounds %"struct.faiss::(anonymous namespace)::IVFSQScannerL2.30", ptr %7, i32 0, i32 4
  %17 = load ptr, ptr %16, align 8
  %18 = getelementptr inbounds %"struct.faiss::(anonymous namespace)::IVFSQScannerL2.30", ptr %7, i32 0, i32 5
  %19 = call noundef ptr @_ZNSt6vectorIfSaIfEE4dataEv(ptr noundef nonnull align 8 dereferenceable(24) %18) #12
  %20 = load i64, ptr %5, align 8
  %21 = load ptr, ptr %15, align 8
  %22 = getelementptr inbounds ptr, ptr %21, i64 14
  %23 = load ptr, ptr %22, align 8
  call void %23(ptr noundef nonnull align 8 dereferenceable(36) %15, ptr noundef %17, ptr noundef %19, i64 noundef %20)
  %24 = getelementptr inbounds %"struct.faiss::(anonymous namespace)::IVFSQScannerL2.30", ptr %7, i32 0, i32 1
  %25 = getelementptr inbounds %"struct.faiss::(anonymous namespace)::IVFSQScannerL2.30", ptr %7, i32 0, i32 5
  %26 = call noundef ptr @_ZNSt6vectorIfSaIfEE4dataEv(ptr noundef nonnull align 8 dereferenceable(24) %25) #12
  call void @_ZN5faiss12_GLOBAL__N_110DCTemplateINS0_17QuantizerTemplateINS0_9Codec4bitELb1ELi1EEENS0_12SimilarityL2ILi1EEELi1EE9set_queryEPKf(ptr noundef nonnull align 8 dereferenceable(56) %24, ptr noundef %26)
  br label %31

27:                                               ; preds = %3
  %28 = getelementptr inbounds %"struct.faiss::(anonymous namespace)::IVFSQScannerL2.30", ptr %7, i32 0, i32 1
  %29 = getelementptr inbounds %"struct.faiss::(anonymous namespace)::IVFSQScannerL2.30", ptr %7, i32 0, i32 4
  %30 = load ptr, ptr %29, align 8
  call void @_ZN5faiss12_GLOBAL__N_110DCTemplateINS0_17QuantizerTemplateINS0_9Codec4bitELb1ELi1EEENS0_12SimilarityL2ILi1EEELi1EE9set_queryEPKf(ptr noundef nonnull align 8 dereferenceable(56) %28, ptr noundef %30)
  br label %31

31:                                               ; preds = %27, %13
  ret void
}